
hammingdistance.elf:     file format elf32-littleriscv


Disassembly of section .text:

00010094 <exit>:
   10094:	1141                	add	sp,sp,-16
   10096:	4581                	li	a1,0
   10098:	c422                	sw	s0,8(sp)
   1009a:	c606                	sw	ra,12(sp)
   1009c:	842a                	mv	s0,a0
   1009e:	0bb000ef          	jal	10958 <__call_exitprocs>
   100a2:	92c1a783          	lw	a5,-1748(gp) # 11bdc <__stdio_exit_handler>
   100a6:	c391                	beqz	a5,100aa <exit+0x16>
   100a8:	9782                	jalr	a5
   100aa:	8522                	mv	a0,s0
   100ac:	191000ef          	jal	10a3c <_exit>

000100b0 <main>:
   100b0:	fd010113          	add	sp,sp,-48
   100b4:	02112623          	sw	ra,44(sp)
   100b8:	02812423          	sw	s0,40(sp)
   100bc:	02912223          	sw	s1,36(sp)
   100c0:	03212023          	sw	s2,32(sp)
   100c4:	01312e23          	sw	s3,28(sp)
   100c8:	01412c23          	sw	s4,24(sp)
   100cc:	01512a23          	sw	s5,20(sp)
   100d0:	01612823          	sw	s6,16(sp)
   100d4:	01712623          	sw	s7,12(sp)
   100d8:	208000ef          	jal	102e0 <get_instret>
   100dc:	00050a13          	mv	s4,a0
   100e0:	1ec000ef          	jal	102cc <get_cycles>
   100e4:	00100637          	lui	a2,0x100
   100e8:	00050b13          	mv	s6,a0
   100ec:	00000693          	li	a3,0
   100f0:	fff60613          	add	a2,a2,-1 # fffff <__global_pointer$+0xedd4f>
   100f4:	001305b7          	lui	a1,0x130
   100f8:	00100537          	lui	a0,0x100
   100fc:	414000ef          	jal	10510 <HammingDistance_c>
   10100:	80000637          	lui	a2,0x80000
   10104:	00050993          	mv	s3,a0
   10108:	ffe00693          	li	a3,-2
   1010c:	fff60613          	add	a2,a2,-1 # 7fffffff <__global_pointer$+0x7ffedd4f>
   10110:	00200593          	li	a1,2
   10114:	00100513          	li	a0,1
   10118:	3f8000ef          	jal	10510 <HammingDistance_c>
   1011c:	837026b7          	lui	a3,0x83702
   10120:	28f68693          	add	a3,a3,655 # 8370228f <__global_pointer$+0x836effdf>
   10124:	00068593          	mv	a1,a3
   10128:	00200613          	li	a2,2
   1012c:	00050913          	mv	s2,a0
   10130:	00200513          	li	a0,2
   10134:	3dc000ef          	jal	10510 <HammingDistance_c>
   10138:	00050493          	mv	s1,a0
   1013c:	190000ef          	jal	102cc <get_cycles>
   10140:	00050b93          	mv	s7,a0
   10144:	19c000ef          	jal	102e0 <get_instret>
   10148:	00050a93          	mv	s5,a0
   1014c:	00011537          	lui	a0,0x11
   10150:	00d00593          	li	a1,13
   10154:	a6450513          	add	a0,a0,-1436 # 10a64 <__errno+0x8>
   10158:	19c000ef          	jal	102f4 <printstr>
   1015c:	00c00613          	li	a2,12
   10160:	95018593          	add	a1,gp,-1712 # 11c00 <intbuf>
   10164:	416b8533          	sub	a0,s7,s6
   10168:	200000ef          	jal	10368 <itos>
   1016c:	fff50593          	add	a1,a0,-1
   10170:	95018513          	add	a0,gp,-1712 # 11c00 <intbuf>
   10174:	180000ef          	jal	102f4 <printstr>
   10178:	00a00513          	li	a0,10
   1017c:	190000ef          	jal	1030c <printchar>
   10180:	00011537          	lui	a0,0x11
   10184:	01200593          	li	a1,18
   10188:	a7450513          	add	a0,a0,-1420 # 10a74 <__errno+0x18>
   1018c:	168000ef          	jal	102f4 <printstr>
   10190:	00c00613          	li	a2,12
   10194:	95018593          	add	a1,gp,-1712 # 11c00 <intbuf>
   10198:	414a8533          	sub	a0,s5,s4
   1019c:	1cc000ef          	jal	10368 <itos>
   101a0:	fff50593          	add	a1,a0,-1
   101a4:	95018513          	add	a0,gp,-1712 # 11c00 <intbuf>
   101a8:	14c000ef          	jal	102f4 <printstr>
   101ac:	00a00513          	li	a0,10
   101b0:	15c000ef          	jal	1030c <printchar>
   101b4:	00011437          	lui	s0,0x11
   101b8:	01100593          	li	a1,17
   101bc:	a8840513          	add	a0,s0,-1400 # 10a88 <__errno+0x2c>
   101c0:	134000ef          	jal	102f4 <printstr>
   101c4:	00098513          	mv	a0,s3
   101c8:	160000ef          	jal	10328 <printint>
   101cc:	00a00513          	li	a0,10
   101d0:	13c000ef          	jal	1030c <printchar>
   101d4:	01100593          	li	a1,17
   101d8:	a8840513          	add	a0,s0,-1400
   101dc:	118000ef          	jal	102f4 <printstr>
   101e0:	00090513          	mv	a0,s2
   101e4:	144000ef          	jal	10328 <printint>
   101e8:	00a00513          	li	a0,10
   101ec:	120000ef          	jal	1030c <printchar>
   101f0:	01100593          	li	a1,17
   101f4:	a8840513          	add	a0,s0,-1400
   101f8:	0fc000ef          	jal	102f4 <printstr>
   101fc:	00048513          	mv	a0,s1
   10200:	128000ef          	jal	10328 <printint>
   10204:	00a00513          	li	a0,10
   10208:	104000ef          	jal	1030c <printchar>
   1020c:	02c12083          	lw	ra,44(sp)
   10210:	02812403          	lw	s0,40(sp)
   10214:	02412483          	lw	s1,36(sp)
   10218:	02012903          	lw	s2,32(sp)
   1021c:	01c12983          	lw	s3,28(sp)
   10220:	01812a03          	lw	s4,24(sp)
   10224:	01412a83          	lw	s5,20(sp)
   10228:	01012b03          	lw	s6,16(sp)
   1022c:	00c12b83          	lw	s7,12(sp)
   10230:	00000513          	li	a0,0
   10234:	03010113          	add	sp,sp,48
   10238:	00008067          	ret

0001023c <register_fini>:
   1023c:	00000793          	li	a5,0
   10240:	c791                	beqz	a5,1024c <register_fini+0x10>
   10242:	00000517          	auipc	a0,0x0
   10246:	5a050513          	add	a0,a0,1440 # 107e2 <__libc_fini_array>
   1024a:	a315                	j	1076e <atexit>
   1024c:	8082                	ret

0001024e <_start>:
   1024e:	00002197          	auipc	gp,0x2
   10252:	06218193          	add	gp,gp,98 # 122b0 <__global_pointer$>
   10256:	92818513          	add	a0,gp,-1752 # 11bd8 <completed.1>
   1025a:	c3418613          	add	a2,gp,-972 # 11ee4 <__BSS_END__>
   1025e:	8e09                	sub	a2,a2,a0
   10260:	4581                	li	a1,0
   10262:	2b75                	jal	1081e <memset>
   10264:	00000517          	auipc	a0,0x0
   10268:	57e50513          	add	a0,a0,1406 # 107e2 <__libc_fini_array>
   1026c:	2309                	jal	1076e <atexit>
   1026e:	2329                	jal	10778 <__libc_init_array>
   10270:	4502                	lw	a0,0(sp)
   10272:	004c                	add	a1,sp,4
   10274:	4601                	li	a2,0
   10276:	3d2d                	jal	100b0 <main>
   10278:	bd31                	j	10094 <exit>

0001027a <__do_global_dtors_aux>:
   1027a:	1141                	add	sp,sp,-16
   1027c:	c422                	sw	s0,8(sp)
   1027e:	92818413          	add	s0,gp,-1752 # 11bd8 <completed.1>
   10282:	00044783          	lbu	a5,0(s0)
   10286:	c606                	sw	ra,12(sp)
   10288:	ef99                	bnez	a5,102a6 <__do_global_dtors_aux+0x2c>
   1028a:	00000793          	li	a5,0
   1028e:	cb89                	beqz	a5,102a0 <__do_global_dtors_aux+0x26>
   10290:	00002517          	auipc	a0,0x2
   10294:	80c50513          	add	a0,a0,-2036 # 11a9c <__EH_FRAME_BEGIN__>
   10298:	00000097          	auipc	ra,0x0
   1029c:	000000e7          	jalr	zero # 0 <STDOUT-0x1>
   102a0:	4785                	li	a5,1
   102a2:	00f40023          	sb	a5,0(s0)
   102a6:	40b2                	lw	ra,12(sp)
   102a8:	4422                	lw	s0,8(sp)
   102aa:	0141                	add	sp,sp,16
   102ac:	8082                	ret

000102ae <frame_dummy>:
   102ae:	00000793          	li	a5,0
   102b2:	cb99                	beqz	a5,102c8 <frame_dummy+0x1a>
   102b4:	93818593          	add	a1,gp,-1736 # 11be8 <object.0>
   102b8:	00001517          	auipc	a0,0x1
   102bc:	7e450513          	add	a0,a0,2020 # 11a9c <__EH_FRAME_BEGIN__>
   102c0:	00000317          	auipc	t1,0x0
   102c4:	00000067          	jr	zero # 0 <STDOUT-0x1>
   102c8:	8082                	ret
	...

000102cc <get_cycles>:
   102cc:	c80025f3          	rdcycleh	a1
   102d0:	c0002573          	rdcycle	a0
   102d4:	c8002673          	rdcycleh	a2
   102d8:	fec59ae3          	bne	a1,a2,102cc <get_cycles>
   102dc:	00008067          	ret

000102e0 <get_instret>:
   102e0:	c82025f3          	rdinstreth	a1
   102e4:	c0202573          	rdinstret	a0
   102e8:	c8202673          	rdinstreth	a2
   102ec:	fec59ae3          	bne	a1,a2,102e0 <get_instret>
   102f0:	00008067          	ret

000102f4 <printstr>:
   102f4:	00058613          	mv	a2,a1
   102f8:	00050593          	mv	a1,a0
   102fc:	00100513          	li	a0,1
   10300:	04000893          	li	a7,64
   10304:	00000073          	ecall
   10308:	00008067          	ret

0001030c <printchar>:
   1030c:	95c18593          	add	a1,gp,-1700 # 11c0c <pch>
   10310:	00a5a023          	sw	a0,0(a1) # 130000 <__global_pointer$+0x11dd50>
   10314:	00100513          	li	a0,1
   10318:	00100613          	li	a2,1
   1031c:	04000893          	li	a7,64
   10320:	00000073          	ecall
   10324:	00008067          	ret

00010328 <printint>:
   10328:	ff810113          	add	sp,sp,-8
   1032c:	00112023          	sw	ra,0(sp)
   10330:	00912223          	sw	s1,4(sp)
   10334:	95e18493          	add	s1,gp,-1698 # 11c0e <pint>
   10338:	00048593          	mv	a1,s1
   1033c:	00b00613          	li	a2,11
   10340:	028000ef          	jal	10368 <itos>
   10344:	fff50613          	add	a2,a0,-1
   10348:	00048593          	mv	a1,s1
   1034c:	00100513          	li	a0,1
   10350:	04000893          	li	a7,64
   10354:	00000073          	ecall
   10358:	00012083          	lw	ra,0(sp)
   1035c:	00412483          	lw	s1,4(sp)
   10360:	00810113          	add	sp,sp,8
   10364:	00008067          	ret

00010368 <itos>:
   10368:	fd010113          	add	sp,sp,-48
   1036c:	02812423          	sw	s0,40(sp)
   10370:	01412c23          	sw	s4,24(sp)
   10374:	02112623          	sw	ra,44(sp)
   10378:	02912223          	sw	s1,36(sp)
   1037c:	03212023          	sw	s2,32(sp)
   10380:	01312e23          	sw	s3,28(sp)
   10384:	00058413          	mv	s0,a1
   10388:	00060a13          	mv	s4,a2
   1038c:	04051263          	bnez	a0,103d0 <itos+0x68>
   10390:	00100793          	li	a5,1
   10394:	02c7e463          	bltu	a5,a2,103bc <itos+0x54>
   10398:	00000513          	li	a0,0
   1039c:	02c12083          	lw	ra,44(sp)
   103a0:	02812403          	lw	s0,40(sp)
   103a4:	02412483          	lw	s1,36(sp)
   103a8:	02012903          	lw	s2,32(sp)
   103ac:	01c12983          	lw	s3,28(sp)
   103b0:	01812a03          	lw	s4,24(sp)
   103b4:	03010113          	add	sp,sp,48
   103b8:	00008067          	ret
   103bc:	03000793          	li	a5,48
   103c0:	00f58023          	sb	a5,0(a1)
   103c4:	000580a3          	sb	zero,1(a1)
   103c8:	00200513          	li	a0,2
   103cc:	fd1ff06f          	j	1039c <itos+0x34>
   103d0:	800007b7          	lui	a5,0x80000
   103d4:	00050493          	mv	s1,a0
   103d8:	06f51063          	bne	a0,a5,10438 <itos+0xd0>
   103dc:	00b00793          	li	a5,11
   103e0:	fac7fce3          	bgeu	a5,a2,10398 <itos+0x30>
   103e4:	02d00793          	li	a5,45
   103e8:	00f58023          	sb	a5,0(a1)
   103ec:	03200793          	li	a5,50
   103f0:	03700713          	li	a4,55
   103f4:	03300693          	li	a3,51
   103f8:	00f580a3          	sb	a5,1(a1)
   103fc:	03100793          	li	a5,49
   10400:	00f58123          	sb	a5,2(a1)
   10404:	00e58223          	sb	a4,4(a1)
   10408:	03400793          	li	a5,52
   1040c:	03800713          	li	a4,56
   10410:	00d583a3          	sb	a3,7(a1)
   10414:	03600693          	li	a3,54
   10418:	00f581a3          	sb	a5,3(a1)
   1041c:	00f582a3          	sb	a5,5(a1)
   10420:	00e58323          	sb	a4,6(a1)
   10424:	00d58423          	sb	a3,8(a1)
   10428:	00f584a3          	sb	a5,9(a1)
   1042c:	00e58523          	sb	a4,10(a1)
   10430:	000585a3          	sb	zero,11(a1)
   10434:	f95ff06f          	j	103c8 <itos+0x60>
   10438:	00012223          	sw	zero,4(sp)
   1043c:	00012423          	sw	zero,8(sp)
   10440:	00012623          	sw	zero,12(sp)
   10444:	00000913          	li	s2,0
   10448:	08055863          	bgez	a0,104d8 <itos+0x170>
   1044c:	40a004b3          	neg	s1,a0
   10450:	00000993          	li	s3,0
   10454:	00410793          	add	a5,sp,4
   10458:	00a00593          	li	a1,10
   1045c:	00048513          	mv	a0,s1
   10460:	01378933          	add	s2,a5,s3
   10464:	2e4000ef          	jal	10748 <__modsi3>
   10468:	03050513          	add	a0,a0,48
   1046c:	00a90023          	sb	a0,0(s2)
   10470:	00a00593          	li	a1,10
   10474:	00048513          	mv	a0,s1
   10478:	278000ef          	jal	106f0 <__divsi3>
   1047c:	00098913          	mv	s2,s3
   10480:	00050493          	mv	s1,a0
   10484:	00198993          	add	s3,s3,1
   10488:	fc0516e3          	bnez	a0,10454 <itos+0xec>
   1048c:	01098793          	add	a5,s3,16
   10490:	002789b3          	add	s3,a5,sp
   10494:	02d00793          	li	a5,45
   10498:	fef98a23          	sb	a5,-12(s3)
   1049c:	00290913          	add	s2,s2,2
   104a0:	ef2a6ce3          	bltu	s4,s2,10398 <itos+0x30>
   104a4:	00040713          	mv	a4,s0
   104a8:	00090793          	mv	a5,s2
   104ac:	fff78793          	add	a5,a5,-1 # 7fffffff <__global_pointer$+0x7ffedd4f>
   104b0:	00410693          	add	a3,sp,4
   104b4:	00f686b3          	add	a3,a3,a5
   104b8:	0006c683          	lbu	a3,0(a3)
   104bc:	00170713          	add	a4,a4,1
   104c0:	fed70fa3          	sb	a3,-1(a4)
   104c4:	fe0794e3          	bnez	a5,104ac <itos+0x144>
   104c8:	01240433          	add	s0,s0,s2
   104cc:	00190513          	add	a0,s2,1
   104d0:	00040023          	sb	zero,0(s0)
   104d4:	ec9ff06f          	j	1039c <itos+0x34>
   104d8:	00410793          	add	a5,sp,4
   104dc:	00a00593          	li	a1,10
   104e0:	00048513          	mv	a0,s1
   104e4:	012789b3          	add	s3,a5,s2
   104e8:	260000ef          	jal	10748 <__modsi3>
   104ec:	03050513          	add	a0,a0,48
   104f0:	00a98023          	sb	a0,0(s3)
   104f4:	00a00593          	li	a1,10
   104f8:	00048513          	mv	a0,s1
   104fc:	1f4000ef          	jal	106f0 <__divsi3>
   10500:	00050493          	mv	s1,a0
   10504:	00190913          	add	s2,s2,1
   10508:	fc0518e3          	bnez	a0,104d8 <itos+0x170>
   1050c:	f95ff06f          	j	104a0 <itos+0x138>

00010510 <HammingDistance_c>:
   10510:	00050813          	mv	a6,a0
   10514:	00050e13          	mv	t3,a0
   10518:	00060893          	mv	a7,a2
   1051c:	00068313          	mv	t1,a3
   10520:	00058513          	mv	a0,a1
   10524:	00d5e663          	bltu	a1,a3,10530 <HammingDistance_c+0x20>
   10528:	00b69863          	bne	a3,a1,10538 <HammingDistance_c+0x28>
   1052c:	00c87663          	bgeu	a6,a2,10538 <HammingDistance_c+0x28>
   10530:	00060e13          	mv	t3,a2
   10534:	00068513          	mv	a0,a3
   10538:	01f51713          	sll	a4,a0,0x1f
   1053c:	001e5793          	srl	a5,t3,0x1
   10540:	00f767b3          	or	a5,a4,a5
   10544:	00155713          	srl	a4,a0,0x1
   10548:	00a76733          	or	a4,a4,a0
   1054c:	01c7e6b3          	or	a3,a5,t3
   10550:	01e71613          	sll	a2,a4,0x1e
   10554:	0026d793          	srl	a5,a3,0x2
   10558:	00f667b3          	or	a5,a2,a5
   1055c:	00275613          	srl	a2,a4,0x2
   10560:	00c76733          	or	a4,a4,a2
   10564:	00f6e6b3          	or	a3,a3,a5
   10568:	01c71613          	sll	a2,a4,0x1c
   1056c:	0046d793          	srl	a5,a3,0x4
   10570:	00f667b3          	or	a5,a2,a5
   10574:	00475613          	srl	a2,a4,0x4
   10578:	00c76733          	or	a4,a4,a2
   1057c:	00f6e6b3          	or	a3,a3,a5
   10580:	01871613          	sll	a2,a4,0x18
   10584:	0086d793          	srl	a5,a3,0x8
   10588:	00f667b3          	or	a5,a2,a5
   1058c:	00875613          	srl	a2,a4,0x8
   10590:	00c76733          	or	a4,a4,a2
   10594:	00f6e6b3          	or	a3,a3,a5
   10598:	01071613          	sll	a2,a4,0x10
   1059c:	0106d793          	srl	a5,a3,0x10
   105a0:	00f667b3          	or	a5,a2,a5
   105a4:	01075613          	srl	a2,a4,0x10
   105a8:	00c76733          	or	a4,a4,a2
   105ac:	00f6e6b3          	or	a3,a3,a5
   105b0:	00e6e6b3          	or	a3,a3,a4
   105b4:	01f71613          	sll	a2,a4,0x1f
   105b8:	0016d793          	srl	a5,a3,0x1
   105bc:	00f667b3          	or	a5,a2,a5
   105c0:	55555637          	lui	a2,0x55555
   105c4:	55560613          	add	a2,a2,1365 # 55555555 <__global_pointer$+0x555432a5>
   105c8:	00175513          	srl	a0,a4,0x1
   105cc:	00c7f7b3          	and	a5,a5,a2
   105d0:	40f687b3          	sub	a5,a3,a5
   105d4:	00c57633          	and	a2,a0,a2
   105d8:	00f6b6b3          	sltu	a3,a3,a5
   105dc:	40c70733          	sub	a4,a4,a2
   105e0:	40d70733          	sub	a4,a4,a3
   105e4:	01e71613          	sll	a2,a4,0x1e
   105e8:	0027d693          	srl	a3,a5,0x2
   105ec:	00d666b3          	or	a3,a2,a3
   105f0:	33333637          	lui	a2,0x33333
   105f4:	33360613          	add	a2,a2,819 # 33333333 <__global_pointer$+0x33321083>
   105f8:	00c6f6b3          	and	a3,a3,a2
   105fc:	00275513          	srl	a0,a4,0x2
   10600:	00c7f7b3          	and	a5,a5,a2
   10604:	00c57533          	and	a0,a0,a2
   10608:	00f687b3          	add	a5,a3,a5
   1060c:	00c77733          	and	a4,a4,a2
   10610:	00e50733          	add	a4,a0,a4
   10614:	00d7b6b3          	sltu	a3,a5,a3
   10618:	00e686b3          	add	a3,a3,a4
   1061c:	01c69613          	sll	a2,a3,0x1c
   10620:	0047d713          	srl	a4,a5,0x4
   10624:	00e66733          	or	a4,a2,a4
   10628:	00f707b3          	add	a5,a4,a5
   1062c:	0046d613          	srl	a2,a3,0x4
   10630:	00d606b3          	add	a3,a2,a3
   10634:	00e7b733          	sltu	a4,a5,a4
   10638:	00d70733          	add	a4,a4,a3
   1063c:	0f0f16b7          	lui	a3,0xf0f1
   10640:	f0f68693          	add	a3,a3,-241 # f0f0f0f <__global_pointer$+0xf0dec5f>
   10644:	00d77733          	and	a4,a4,a3
   10648:	00d7f7b3          	and	a5,a5,a3
   1064c:	01871613          	sll	a2,a4,0x18
   10650:	0087d693          	srl	a3,a5,0x8
   10654:	00d666b3          	or	a3,a2,a3
   10658:	00d786b3          	add	a3,a5,a3
   1065c:	00875613          	srl	a2,a4,0x8
   10660:	00c70733          	add	a4,a4,a2
   10664:	00f6b7b3          	sltu	a5,a3,a5
   10668:	00e787b3          	add	a5,a5,a4
   1066c:	01079613          	sll	a2,a5,0x10
   10670:	0106d713          	srl	a4,a3,0x10
   10674:	00e66733          	or	a4,a2,a4
   10678:	00e68733          	add	a4,a3,a4
   1067c:	0107d613          	srl	a2,a5,0x10
   10680:	00d736b3          	sltu	a3,a4,a3
   10684:	00c787b3          	add	a5,a5,a2
   10688:	00f686b3          	add	a3,a3,a5
   1068c:	00d70733          	add	a4,a4,a3
   10690:	04000793          	li	a5,64
   10694:	07f77713          	and	a4,a4,127
   10698:	40e78733          	sub	a4,a5,a4
   1069c:	01071713          	sll	a4,a4,0x10
   106a0:	01075713          	srl	a4,a4,0x10
   106a4:	04000793          	li	a5,64
   106a8:	40e787b3          	sub	a5,a5,a4
   106ac:	00000513          	li	a0,0
   106b0:	00f04463          	bgtz	a5,106b8 <HammingDistance_c+0x1a8>
   106b4:	00008067          	ret
   106b8:	01184733          	xor	a4,a6,a7
   106bc:	00177713          	and	a4,a4,1
   106c0:	00070463          	beqz	a4,106c8 <HammingDistance_c+0x1b8>
   106c4:	00150513          	add	a0,a0,1
   106c8:	01f59713          	sll	a4,a1,0x1f
   106cc:	00185813          	srl	a6,a6,0x1
   106d0:	01076833          	or	a6,a4,a6
   106d4:	0018d893          	srl	a7,a7,0x1
   106d8:	01f31713          	sll	a4,t1,0x1f
   106dc:	0015d593          	srl	a1,a1,0x1
   106e0:	011768b3          	or	a7,a4,a7
   106e4:	00135313          	srl	t1,t1,0x1
   106e8:	fff78793          	add	a5,a5,-1
   106ec:	fc5ff06f          	j	106b0 <HammingDistance_c+0x1a0>

000106f0 <__divsi3>:
   106f0:	02054e63          	bltz	a0,1072c <__umodsi3+0x8>
   106f4:	0405c363          	bltz	a1,1073a <__umodsi3+0x16>

000106f8 <__hidden___udivsi3>:
   106f8:	862e                	mv	a2,a1
   106fa:	85aa                	mv	a1,a0
   106fc:	557d                	li	a0,-1
   106fe:	c215                	beqz	a2,10722 <__hidden___udivsi3+0x2a>
   10700:	4685                	li	a3,1
   10702:	00b67863          	bgeu	a2,a1,10712 <__hidden___udivsi3+0x1a>
   10706:	00c05663          	blez	a2,10712 <__hidden___udivsi3+0x1a>
   1070a:	0606                	sll	a2,a2,0x1
   1070c:	0686                	sll	a3,a3,0x1
   1070e:	feb66ce3          	bltu	a2,a1,10706 <__hidden___udivsi3+0xe>
   10712:	4501                	li	a0,0
   10714:	00c5e463          	bltu	a1,a2,1071c <__hidden___udivsi3+0x24>
   10718:	8d91                	sub	a1,a1,a2
   1071a:	8d55                	or	a0,a0,a3
   1071c:	8285                	srl	a3,a3,0x1
   1071e:	8205                	srl	a2,a2,0x1
   10720:	faf5                	bnez	a3,10714 <__hidden___udivsi3+0x1c>
   10722:	8082                	ret

00010724 <__umodsi3>:
   10724:	8286                	mv	t0,ra
   10726:	3fc9                	jal	106f8 <__hidden___udivsi3>
   10728:	852e                	mv	a0,a1
   1072a:	8282                	jr	t0
   1072c:	40a00533          	neg	a0,a0
   10730:	00b04763          	bgtz	a1,1073e <__umodsi3+0x1a>
   10734:	40b005b3          	neg	a1,a1
   10738:	b7c1                	j	106f8 <__hidden___udivsi3>
   1073a:	40b005b3          	neg	a1,a1
   1073e:	8286                	mv	t0,ra
   10740:	3f65                	jal	106f8 <__hidden___udivsi3>
   10742:	40a00533          	neg	a0,a0
   10746:	8282                	jr	t0

00010748 <__modsi3>:
   10748:	8286                	mv	t0,ra
   1074a:	0005c763          	bltz	a1,10758 <__modsi3+0x10>
   1074e:	00054963          	bltz	a0,10760 <__modsi3+0x18>
   10752:	375d                	jal	106f8 <__hidden___udivsi3>
   10754:	852e                	mv	a0,a1
   10756:	8282                	jr	t0
   10758:	40b005b3          	neg	a1,a1
   1075c:	fe055be3          	bgez	a0,10752 <__modsi3+0xa>
   10760:	40a00533          	neg	a0,a0
   10764:	3f51                	jal	106f8 <__hidden___udivsi3>
   10766:	40b00533          	neg	a0,a1
   1076a:	8282                	jr	t0
	...

0001076e <atexit>:
   1076e:	85aa                	mv	a1,a0
   10770:	4681                	li	a3,0
   10772:	4601                	li	a2,0
   10774:	4501                	li	a0,0
   10776:	aa81                	j	108c6 <__register_exitproc>

00010778 <__libc_init_array>:
   10778:	1141                	add	sp,sp,-16
   1077a:	c422                	sw	s0,8(sp)
   1077c:	c04a                	sw	s2,0(sp)
   1077e:	00001797          	auipc	a5,0x1
   10782:	32278793          	add	a5,a5,802 # 11aa0 <__init_array_start>
   10786:	00001417          	auipc	s0,0x1
   1078a:	31a40413          	add	s0,s0,794 # 11aa0 <__init_array_start>
   1078e:	c606                	sw	ra,12(sp)
   10790:	c226                	sw	s1,4(sp)
   10792:	40878933          	sub	s2,a5,s0
   10796:	00878b63          	beq	a5,s0,107ac <__libc_init_array+0x34>
   1079a:	40295913          	sra	s2,s2,0x2
   1079e:	4481                	li	s1,0
   107a0:	401c                	lw	a5,0(s0)
   107a2:	0485                	add	s1,s1,1
   107a4:	0411                	add	s0,s0,4
   107a6:	9782                	jalr	a5
   107a8:	ff24ece3          	bltu	s1,s2,107a0 <__libc_init_array+0x28>
   107ac:	00001797          	auipc	a5,0x1
   107b0:	2fc78793          	add	a5,a5,764 # 11aa8 <__do_global_dtors_aux_fini_array_entry>
   107b4:	00001417          	auipc	s0,0x1
   107b8:	2ec40413          	add	s0,s0,748 # 11aa0 <__init_array_start>
   107bc:	40878933          	sub	s2,a5,s0
   107c0:	40295913          	sra	s2,s2,0x2
   107c4:	00878963          	beq	a5,s0,107d6 <__libc_init_array+0x5e>
   107c8:	4481                	li	s1,0
   107ca:	401c                	lw	a5,0(s0)
   107cc:	0485                	add	s1,s1,1
   107ce:	0411                	add	s0,s0,4
   107d0:	9782                	jalr	a5
   107d2:	ff24ece3          	bltu	s1,s2,107ca <__libc_init_array+0x52>
   107d6:	40b2                	lw	ra,12(sp)
   107d8:	4422                	lw	s0,8(sp)
   107da:	4492                	lw	s1,4(sp)
   107dc:	4902                	lw	s2,0(sp)
   107de:	0141                	add	sp,sp,16
   107e0:	8082                	ret

000107e2 <__libc_fini_array>:
   107e2:	1141                	add	sp,sp,-16
   107e4:	c422                	sw	s0,8(sp)
   107e6:	00001797          	auipc	a5,0x1
   107ea:	2c278793          	add	a5,a5,706 # 11aa8 <__do_global_dtors_aux_fini_array_entry>
   107ee:	00001417          	auipc	s0,0x1
   107f2:	2be40413          	add	s0,s0,702 # 11aac <__fini_array_end>
   107f6:	8c1d                	sub	s0,s0,a5
   107f8:	c226                	sw	s1,4(sp)
   107fa:	c606                	sw	ra,12(sp)
   107fc:	40245493          	sra	s1,s0,0x2
   10800:	c881                	beqz	s1,10810 <__libc_fini_array+0x2e>
   10802:	1471                	add	s0,s0,-4
   10804:	943e                	add	s0,s0,a5
   10806:	401c                	lw	a5,0(s0)
   10808:	14fd                	add	s1,s1,-1
   1080a:	1471                	add	s0,s0,-4
   1080c:	9782                	jalr	a5
   1080e:	fce5                	bnez	s1,10806 <__libc_fini_array+0x24>
   10810:	40b2                	lw	ra,12(sp)
   10812:	4422                	lw	s0,8(sp)
   10814:	4492                	lw	s1,4(sp)
   10816:	0141                	add	sp,sp,16
   10818:	8082                	ret

0001081a <__retarget_lock_acquire_recursive>:
   1081a:	8082                	ret

0001081c <__retarget_lock_release_recursive>:
   1081c:	8082                	ret

0001081e <memset>:
   1081e:	433d                	li	t1,15
   10820:	872a                	mv	a4,a0
   10822:	02c37363          	bgeu	t1,a2,10848 <memset+0x2a>
   10826:	00f77793          	and	a5,a4,15
   1082a:	efbd                	bnez	a5,108a8 <memset+0x8a>
   1082c:	e5ad                	bnez	a1,10896 <memset+0x78>
   1082e:	ff067693          	and	a3,a2,-16
   10832:	8a3d                	and	a2,a2,15
   10834:	96ba                	add	a3,a3,a4
   10836:	c30c                	sw	a1,0(a4)
   10838:	c34c                	sw	a1,4(a4)
   1083a:	c70c                	sw	a1,8(a4)
   1083c:	c74c                	sw	a1,12(a4)
   1083e:	0741                	add	a4,a4,16
   10840:	fed76be3          	bltu	a4,a3,10836 <memset+0x18>
   10844:	e211                	bnez	a2,10848 <memset+0x2a>
   10846:	8082                	ret
   10848:	40c306b3          	sub	a3,t1,a2
   1084c:	068a                	sll	a3,a3,0x2
   1084e:	00000297          	auipc	t0,0x0
   10852:	9696                	add	a3,a3,t0
   10854:	00a68067          	jr	10(a3)
   10858:	00b70723          	sb	a1,14(a4)
   1085c:	00b706a3          	sb	a1,13(a4)
   10860:	00b70623          	sb	a1,12(a4)
   10864:	00b705a3          	sb	a1,11(a4)
   10868:	00b70523          	sb	a1,10(a4)
   1086c:	00b704a3          	sb	a1,9(a4)
   10870:	00b70423          	sb	a1,8(a4)
   10874:	00b703a3          	sb	a1,7(a4)
   10878:	00b70323          	sb	a1,6(a4)
   1087c:	00b702a3          	sb	a1,5(a4)
   10880:	00b70223          	sb	a1,4(a4)
   10884:	00b701a3          	sb	a1,3(a4)
   10888:	00b70123          	sb	a1,2(a4)
   1088c:	00b700a3          	sb	a1,1(a4)
   10890:	00b70023          	sb	a1,0(a4)
   10894:	8082                	ret
   10896:	0ff5f593          	zext.b	a1,a1
   1089a:	00859693          	sll	a3,a1,0x8
   1089e:	8dd5                	or	a1,a1,a3
   108a0:	01059693          	sll	a3,a1,0x10
   108a4:	8dd5                	or	a1,a1,a3
   108a6:	b761                	j	1082e <memset+0x10>
   108a8:	00279693          	sll	a3,a5,0x2
   108ac:	00000297          	auipc	t0,0x0
   108b0:	9696                	add	a3,a3,t0
   108b2:	8286                	mv	t0,ra
   108b4:	fa8680e7          	jalr	-88(a3)
   108b8:	8096                	mv	ra,t0
   108ba:	17c1                	add	a5,a5,-16
   108bc:	8f1d                	sub	a4,a4,a5
   108be:	963e                	add	a2,a2,a5
   108c0:	f8c374e3          	bgeu	t1,a2,10848 <memset+0x2a>
   108c4:	b7a5                	j	1082c <memset+0xe>

000108c6 <__register_exitproc>:
   108c6:	1101                	add	sp,sp,-32
   108c8:	c84a                	sw	s2,16(sp)
   108ca:	92418913          	add	s2,gp,-1756 # 11bd4 <__atexit_recursive_mutex>
   108ce:	cc22                	sw	s0,24(sp)
   108d0:	842a                	mv	s0,a0
   108d2:	00092503          	lw	a0,0(s2)
   108d6:	ca26                	sw	s1,20(sp)
   108d8:	c64e                	sw	s3,12(sp)
   108da:	c452                	sw	s4,8(sp)
   108dc:	ce06                	sw	ra,28(sp)
   108de:	84ae                	mv	s1,a1
   108e0:	8a32                	mv	s4,a2
   108e2:	89b6                	mv	s3,a3
   108e4:	3f1d                	jal	1081a <__retarget_lock_acquire_recursive>
   108e6:	93418713          	add	a4,gp,-1740 # 11be4 <__atexit>
   108ea:	431c                	lw	a5,0(a4)
   108ec:	cfb9                	beqz	a5,1094a <__register_exitproc+0x84>
   108ee:	43d8                	lw	a4,4(a5)
   108f0:	45fd                	li	a1,31
   108f2:	00092503          	lw	a0,0(s2)
   108f6:	04e5ce63          	blt	a1,a4,10952 <__register_exitproc+0x8c>
   108fa:	00271593          	sll	a1,a4,0x2
   108fe:	ec19                	bnez	s0,1091c <__register_exitproc+0x56>
   10900:	0705                	add	a4,a4,1
   10902:	c3d8                	sw	a4,4(a5)
   10904:	97ae                	add	a5,a5,a1
   10906:	c784                	sw	s1,8(a5)
   10908:	3f11                	jal	1081c <__retarget_lock_release_recursive>
   1090a:	4501                	li	a0,0
   1090c:	40f2                	lw	ra,28(sp)
   1090e:	4462                	lw	s0,24(sp)
   10910:	44d2                	lw	s1,20(sp)
   10912:	4942                	lw	s2,16(sp)
   10914:	49b2                	lw	s3,12(sp)
   10916:	4a22                	lw	s4,8(sp)
   10918:	6105                	add	sp,sp,32
   1091a:	8082                	ret
   1091c:	00b78833          	add	a6,a5,a1
   10920:	09482423          	sw	s4,136(a6)
   10924:	1887a683          	lw	a3,392(a5)
   10928:	4605                	li	a2,1
   1092a:	00e61633          	sll	a2,a2,a4
   1092e:	8ed1                	or	a3,a3,a2
   10930:	18d7a423          	sw	a3,392(a5)
   10934:	11382423          	sw	s3,264(a6)
   10938:	4689                	li	a3,2
   1093a:	fcd413e3          	bne	s0,a3,10900 <__register_exitproc+0x3a>
   1093e:	18c7a683          	lw	a3,396(a5)
   10942:	8ed1                	or	a3,a3,a2
   10944:	18d7a623          	sw	a3,396(a5)
   10948:	bf65                	j	10900 <__register_exitproc+0x3a>
   1094a:	aa418793          	add	a5,gp,-1372 # 11d54 <__atexit0>
   1094e:	c31c                	sw	a5,0(a4)
   10950:	bf79                	j	108ee <__register_exitproc+0x28>
   10952:	35e9                	jal	1081c <__retarget_lock_release_recursive>
   10954:	557d                	li	a0,-1
   10956:	bf5d                	j	1090c <__register_exitproc+0x46>

00010958 <__call_exitprocs>:
   10958:	7179                	add	sp,sp,-48
   1095a:	c65e                	sw	s7,12(sp)
   1095c:	92418b93          	add	s7,gp,-1756 # 11bd4 <__atexit_recursive_mutex>
   10960:	c85a                	sw	s6,16(sp)
   10962:	8b2a                	mv	s6,a0
   10964:	000ba503          	lw	a0,0(s7)
   10968:	cc52                	sw	s4,24(sp)
   1096a:	93418a13          	add	s4,gp,-1740 # 11be4 <__atexit>
   1096e:	d04a                	sw	s2,32(sp)
   10970:	c462                	sw	s8,8(sp)
   10972:	d606                	sw	ra,44(sp)
   10974:	8c2e                	mv	s8,a1
   10976:	3555                	jal	1081a <__retarget_lock_acquire_recursive>
   10978:	000a2903          	lw	s2,0(s4)
   1097c:	06090663          	beqz	s2,109e8 <__call_exitprocs+0x90>
   10980:	ce4e                	sw	s3,28(sp)
   10982:	ca56                	sw	s5,20(sp)
   10984:	d422                	sw	s0,40(sp)
   10986:	d226                	sw	s1,36(sp)
   10988:	c266                	sw	s9,4(sp)
   1098a:	59fd                	li	s3,-1
   1098c:	4a85                	li	s5,1
   1098e:	00492483          	lw	s1,4(s2)
   10992:	fff48413          	add	s0,s1,-1
   10996:	04044463          	bltz	s0,109de <__call_exitprocs+0x86>
   1099a:	048a                	sll	s1,s1,0x2
   1099c:	94ca                	add	s1,s1,s2
   1099e:	040c1f63          	bnez	s8,109fc <__call_exitprocs+0xa4>
   109a2:	00492783          	lw	a5,4(s2)
   109a6:	40d4                	lw	a3,4(s1)
   109a8:	17fd                	add	a5,a5,-1
   109aa:	08878363          	beq	a5,s0,10a30 <__call_exitprocs+0xd8>
   109ae:	0004a223          	sw	zero,4(s1)
   109b2:	c295                	beqz	a3,109d6 <__call_exitprocs+0x7e>
   109b4:	18892783          	lw	a5,392(s2)
   109b8:	008a9733          	sll	a4,s5,s0
   109bc:	00492c83          	lw	s9,4(s2)
   109c0:	8ff9                	and	a5,a5,a4
   109c2:	e7b1                	bnez	a5,10a0e <__call_exitprocs+0xb6>
   109c4:	9682                	jalr	a3
   109c6:	00492703          	lw	a4,4(s2)
   109ca:	000a2783          	lw	a5,0(s4)
   109ce:	05971e63          	bne	a4,s9,10a2a <__call_exitprocs+0xd2>
   109d2:	05279c63          	bne	a5,s2,10a2a <__call_exitprocs+0xd2>
   109d6:	147d                	add	s0,s0,-1
   109d8:	14f1                	add	s1,s1,-4
   109da:	fd3412e3          	bne	s0,s3,1099e <__call_exitprocs+0x46>
   109de:	5422                	lw	s0,40(sp)
   109e0:	5492                	lw	s1,36(sp)
   109e2:	49f2                	lw	s3,28(sp)
   109e4:	4ad2                	lw	s5,20(sp)
   109e6:	4c92                	lw	s9,4(sp)
   109e8:	000ba503          	lw	a0,0(s7)
   109ec:	50b2                	lw	ra,44(sp)
   109ee:	5902                	lw	s2,32(sp)
   109f0:	4a62                	lw	s4,24(sp)
   109f2:	4b42                	lw	s6,16(sp)
   109f4:	4bb2                	lw	s7,12(sp)
   109f6:	4c22                	lw	s8,8(sp)
   109f8:	6145                	add	sp,sp,48
   109fa:	b50d                	j	1081c <__retarget_lock_release_recursive>
   109fc:	1044a783          	lw	a5,260(s1)
   10a00:	fb8781e3          	beq	a5,s8,109a2 <__call_exitprocs+0x4a>
   10a04:	147d                	add	s0,s0,-1
   10a06:	14f1                	add	s1,s1,-4
   10a08:	ff341ae3          	bne	s0,s3,109fc <__call_exitprocs+0xa4>
   10a0c:	bfc9                	j	109de <__call_exitprocs+0x86>
   10a0e:	18c92783          	lw	a5,396(s2)
   10a12:	0844a583          	lw	a1,132(s1)
   10a16:	8f7d                	and	a4,a4,a5
   10a18:	ef19                	bnez	a4,10a36 <__call_exitprocs+0xde>
   10a1a:	855a                	mv	a0,s6
   10a1c:	9682                	jalr	a3
   10a1e:	00492703          	lw	a4,4(s2)
   10a22:	000a2783          	lw	a5,0(s4)
   10a26:	fb9706e3          	beq	a4,s9,109d2 <__call_exitprocs+0x7a>
   10a2a:	dbd5                	beqz	a5,109de <__call_exitprocs+0x86>
   10a2c:	893e                	mv	s2,a5
   10a2e:	b785                	j	1098e <__call_exitprocs+0x36>
   10a30:	00892223          	sw	s0,4(s2)
   10a34:	bfbd                	j	109b2 <__call_exitprocs+0x5a>
   10a36:	852e                	mv	a0,a1
   10a38:	9682                	jalr	a3
   10a3a:	b771                	j	109c6 <__call_exitprocs+0x6e>

00010a3c <_exit>:
   10a3c:	05d00893          	li	a7,93
   10a40:	00000073          	ecall
   10a44:	00054363          	bltz	a0,10a4a <_exit+0xe>
   10a48:	a001                	j	10a48 <_exit+0xc>
   10a4a:	1141                	add	sp,sp,-16
   10a4c:	c422                	sw	s0,8(sp)
   10a4e:	842a                	mv	s0,a0
   10a50:	c606                	sw	ra,12(sp)
   10a52:	40800433          	neg	s0,s0
   10a56:	2019                	jal	10a5c <__errno>
   10a58:	c100                	sw	s0,0(a0)
   10a5a:	a001                	j	10a5a <_exit+0x1e>

00010a5c <__errno>:
   10a5c:	9201a503          	lw	a0,-1760(gp) # 11bd0 <_impure_ptr>
   10a60:	8082                	ret
